	.file	"lua_filter.c"
	.text
.Ltext0:
	.file 0 "/home/primauser/plastov/Mediastreamer2_LuaFilter/src" "lua_filter.c"
	.type	ms_queue_get, @function
ms_queue_get:
.LFB11:
	.file 1 "/usr/include/mediastreamer2/msqueue.h"
	.loc 1 41 47
	.cfi_startproc
	pushq	%rbp
	.cfi_def_cfa_offset 16
	.cfi_offset 6, -16
	movq	%rsp, %rbp
	.cfi_def_cfa_register 6
	subq	$16, %rsp
	movq	%rdi, -8(%rbp)
	.loc 1 42 9
	movq	-8(%rbp), %rax
	movq	%rax, %rdi
	call	getq@PLT
	.loc 1 43 1
	leave
	.cfi_def_cfa 7, 8
	ret
	.cfi_endproc
.LFE11:
	.size	ms_queue_get, .-ms_queue_get
	.type	ms_queue_put, @function
ms_queue_put:
.LFB12:
	.loc 1 45 55
	.cfi_startproc
	pushq	%rbp
	.cfi_def_cfa_offset 16
	.cfi_offset 6, -16
	movq	%rsp, %rbp
	.cfi_def_cfa_register 6
	subq	$16, %rsp
	movq	%rdi, -8(%rbp)
	movq	%rsi, -16(%rbp)
	.loc 1 46 2
	movq	-8(%rbp), %rax
	movq	-16(%rbp), %rdx
	movq	%rdx, %rsi
	movq	%rax, %rdi
	call	putq@PLT
	.loc 1 47 2
	nop
	.loc 1 48 1
	leave
	.cfi_def_cfa 7, 8
	ret
	.cfi_endproc
.LFE12:
	.size	ms_queue_put, .-ms_queue_put
	.type	ms_queue_empty, @function
ms_queue_empty:
.LFB18:
	.loc 1 77 54
	.cfi_startproc
	pushq	%rbp
	.cfi_def_cfa_offset 16
	.cfi_offset 6, -16
	movq	%rsp, %rbp
	.cfi_def_cfa_register 6
	movq	%rdi, -8(%rbp)
	.loc 1 78 10
	movq	-8(%rbp), %rdx
	.loc 1 78 51
	movq	-8(%rbp), %rax
	movq	8(%rax), %rax
	.loc 1 78 30
	cmpq	%rax, %rdx
	sete	%al
	.loc 1 79 1
	popq	%rbp
	.cfi_def_cfa 7, 8
	ret
	.cfi_endproc
.LFE18:
	.size	ms_queue_empty, .-ms_queue_empty
	.section	.rodata
.LC0:
	.string	"%s"
	.text
	.type	l_my_print, @function
l_my_print:
.LFB20:
	.file 2 "lua_filter.c"
	.loc 2 7 1
	.cfi_startproc
	endbr64
	pushq	%rbp
	.cfi_def_cfa_offset 16
	.cfi_offset 6, -16
	movq	%rsp, %rbp
	.cfi_def_cfa_register 6
	subq	$32, %rsp
	movq	%rdi, -24(%rbp)
	.loc 2 8 15
	movq	-24(%rbp), %rax
	movq	%rax, %rdi
	call	lua_gettop@PLT
	movl	%eax, -12(%rbp)
.LBB2:
	.loc 2 10 12
	movl	$1, -16(%rbp)
	.loc 2 10 3
	jmp	.L8
.L10:
	.loc 2 12 11
	movl	-16(%rbp), %edx
	movq	-24(%rbp), %rax
	movl	%edx, %esi
	movq	%rax, %rdi
	call	lua_isstring@PLT
	.loc 2 12 10
	testl	%eax, %eax
	je	.L9
.LBB3:
	.loc 2 15 21
	movq	-24(%rbp), %rax
	movq	%rax, %rdi
	call	lua_gettop@PLT
	movl	%eax, %ecx
	movq	-24(%rbp), %rax
	movl	$0, %edx
	movl	%ecx, %esi
	movq	%rax, %rdi
	call	lua_tolstring@PLT
	movq	%rax, -8(%rbp)
	.loc 2 16 4
	movq	-8(%rbp), %rax
	movq	%rax, %rsi
	leaq	.LC0(%rip), %rax
	movq	%rax, %rdi
	movl	$0, %eax
	call	printf@PLT
.L9:
.LBE3:
	.loc 2 10 32 discriminator 2
	addl	$1, -16(%rbp)
.L8:
	.loc 2 10 21 discriminator 1
	movl	-16(%rbp), %eax
	cmpl	-12(%rbp), %eax
	jle	.L10
.LBE2:
	.loc 2 24 10
	movl	$0, %eax
	.loc 2 25 1
	leave
	.cfi_def_cfa 7, 8
	ret
	.cfi_endproc
.LFE20:
	.size	l_my_print, .-l_my_print
	.section	.rodata
.LC1:
	.string	"print"
	.section	.data.rel.ro.local,"aw"
	.align 32
	.type	printlib, @object
	.size	printlib, 32
printlib:
	.quad	.LC1
	.quad	l_my_print
	.quad	0
	.quad	0
	.section	.rodata
.LC2:
	.string	"_G"
	.text
	.globl	luaopen_luamylib
	.type	luaopen_luamylib, @function
luaopen_luamylib:
.LFB21:
	.loc 2 37 1
	.cfi_startproc
	endbr64
	pushq	%rbp
	.cfi_def_cfa_offset 16
	.cfi_offset 6, -16
	movq	%rsp, %rbp
	.cfi_def_cfa_register 6
	subq	$16, %rsp
	movq	%rdi, -8(%rbp)
	.loc 2 38 3
	movq	-8(%rbp), %rax
	leaq	.LC2(%rip), %rdx
	movq	%rdx, %rsi
	movq	%rax, %rdi
	call	lua_getglobal@PLT
	.loc 2 39 3
	movq	-8(%rbp), %rax
	movl	$0, %edx
	leaq	printlib(%rip), %rcx
	movq	%rcx, %rsi
	movq	%rax, %rdi
	call	luaL_setfuncs@PLT
	.loc 2 40 2
	movq	-8(%rbp), %rax
	movl	$-2, %esi
	movq	%rax, %rdi
	call	lua_settop@PLT
	.loc 2 41 10
	movl	$0, %eax
	.loc 2 42 1
	leave
	.cfi_def_cfa 7, 8
	ret
	.cfi_endproc
.LFE21:
	.size	luaopen_luamylib, .-luaopen_luamylib
	.globl	set_queues
	.type	set_queues, @function
set_queues:
.LFB22:
	.loc 2 60 1
	.cfi_startproc
	endbr64
	pushq	%rbp
	.cfi_def_cfa_offset 16
	.cfi_offset 6, -16
	movq	%rsp, %rbp
	.cfi_def_cfa_register 6
	movq	%rdi, -8(%rbp)
	.loc 2 62 1
	nop
	popq	%rbp
	.cfi_def_cfa 7, 8
	ret
	.cfi_endproc
.LFE22:
	.size	set_queues, .-set_queues
	.section	.rodata
	.align 8
.LC3:
	.string	"filter <%s> Lua script preamble error.\n"
.LC4:
	.string	"Error description:<%s>\n"
	.text
	.type	run_preambula, @function
run_preambula:
.LFB23:
	.loc 2 68 1
	.cfi_startproc
	endbr64
	pushq	%rbp
	.cfi_def_cfa_offset 16
	.cfi_offset 6, -16
	movq	%rsp, %rbp
	.cfi_def_cfa_register 6
	subq	$48, %rsp
	movq	%rdi, -40(%rbp)
	.loc 2 69 14
	movq	-40(%rbp), %rax
	movq	80(%rax), %rax
	movq	%rax, -16(%rbp)
	.loc 2 70 6
	movq	-16(%rbp), %rax
	movq	8(%rax), %rax
	.loc 2 70 4
	testq	%rax, %rax
	je	.L16
.LBB4:
	.loc 2 72 6
	movl	$0, -20(%rbp)
	.loc 2 74 8
	movq	-16(%rbp), %rax
	movq	8(%rax), %rdx
	.loc 2 74 8
	movq	-16(%rbp), %rax
	movq	(%rax), %rax
	movq	%rdx, %rsi
	movq	%rax, %rdi
	call	luaL_loadstring@PLT
	.loc 2 74 9
	testl	%eax, %eax
	jne	.L17
	.loc 2 74 12 discriminator 2
	movq	-16(%rbp), %rax
	movq	(%rax), %rax
	movl	$0, %r9d
	movl	$0, %r8d
	movl	$0, %ecx
	movl	$-1, %edx
	movl	$0, %esi
	movq	%rax, %rdi
	call	lua_pcallk@PLT
	.loc 2 74 9 discriminator 2
	testl	%eax, %eax
	je	.L18
.L17:
	.loc 2 74 9 is_stmt 0 discriminator 3
	movl	$1, %eax
	jmp	.L19
.L18:
	.loc 2 74 9 discriminator 4
	movl	$0, %eax
.L19:
	.loc 2 74 6 is_stmt 1 discriminator 6
	movl	%eax, -20(%rbp)
	.loc 2 75 5 discriminator 6
	cmpl	$0, -20(%rbp)
	je	.L20
.LBB5:
	.loc 2 78 6
	movq	-40(%rbp), %rax
	movq	(%rax), %rax
	.loc 2 77 4
	movq	8(%rax), %rax
	movq	%rax, %rsi
	leaq	.LC3(%rip), %rax
	movq	%rax, %rdi
	movl	$0, %eax
	call	printf@PLT
	.loc 2 79 24
	movq	-16(%rbp), %rax
	movq	(%rax), %rax
	movq	%rax, %rdi
	call	lua_gettop@PLT
	movl	%eax, %ecx
	movq	-16(%rbp), %rax
	movq	(%rax), %rax
	movl	$0, %edx
	movl	%ecx, %esi
	movq	%rax, %rdi
	call	lua_tolstring@PLT
	movq	%rax, -8(%rbp)
	.loc 2 80 7
	cmpq	$0, -8(%rbp)
	je	.L22
	.loc 2 82 5
	movq	-8(%rbp), %rax
	movq	%rax, %rsi
	leaq	.LC4(%rip), %rax
	movq	%rax, %rdi
	movl	$0, %eax
	call	printf@PLT
.LBE5:
.LBE4:
	.loc 2 95 1
	jmp	.L22
.L20:
.LBB6:
	.loc 2 87 24
	movq	-16(%rbp), %rax
	movb	$1, 25(%rax)
.LBE6:
	.loc 2 95 1
	jmp	.L22
.L16:
	.loc 2 93 22
	movq	-16(%rbp), %rax
	movb	$1, 25(%rax)
.L22:
	.loc 2 95 1
	nop
	leave
	.cfi_def_cfa 7, 8
	ret
	.cfi_endproc
.LFE23:
	.size	run_preambula, .-run_preambula
	.type	control_init, @function
control_init:
.LFB24:
	.loc 2 100 1
	.cfi_startproc
	endbr64
	pushq	%rbp
	.cfi_def_cfa_offset 16
	.cfi_offset 6, -16
	movq	%rsp, %rbp
	.cfi_def_cfa_register 6
	subq	$32, %rsp
	movq	%rdi, -24(%rbp)
	.loc 2 101 20
	movl	$32, %edi
	call	ortp_malloc0@PLT
	movq	%rax, -8(%rbp)
	.loc 2 102 9
	movq	-24(%rbp), %rax
	movq	-8(%rbp), %rdx
	movq	%rdx, 80(%rax)
	.loc 2 103 9
	call	luaL_newstate@PLT
	.loc 2 103 7
	movq	-8(%rbp), %rdx
	movq	%rax, (%rdx)
	.loc 2 104 1
	movq	-8(%rbp), %rax
	movq	(%rax), %rax
	movq	%rax, %rdi
	call	luaL_openlibs@PLT
	.loc 2 105 1
	movq	-8(%rbp), %rax
	movq	(%rax), %rax
	movq	%rax, %rdi
	call	luaopen_luamylib
	.loc 2 106 1
	nop
	leave
	.cfi_def_cfa 7, 8
	ret
	.cfi_endproc
.LFE24:
	.size	control_init, .-control_init
	.type	control_uninit, @function
control_uninit:
.LFB25:
	.loc 2 111 1
	.cfi_startproc
	endbr64
	pushq	%rbp
	.cfi_def_cfa_offset 16
	.cfi_offset 6, -16
	movq	%rsp, %rbp
	.cfi_def_cfa_register 6
	subq	$32, %rsp
	movq	%rdi, -24(%rbp)
	.loc 2 112 14
	movq	-24(%rbp), %rax
	movq	80(%rax), %rax
	movq	%rax, -8(%rbp)
	.loc 2 113 1
	movq	-8(%rbp), %rax
	movq	(%rax), %rax
	movq	%rax, %rdi
	call	lua_close@PLT
	.loc 2 114 10
	movq	-8(%rbp), %rax
	movq	16(%rax), %rax
	.loc 2 114 1
	movq	%rax, %rdi
	call	ortp_free@PLT
	.loc 2 115 10
	movq	-8(%rbp), %rax
	movq	8(%rax), %rax
	.loc 2 115 1
	movq	%rax, %rdi
	call	ortp_free@PLT
	.loc 2 116 1
	movq	-8(%rbp), %rax
	movq	%rax, %rdi
	call	ortp_free@PLT
	.loc 2 117 1
	nop
	leave
	.cfi_def_cfa 7, 8
	ret
	.cfi_endproc
.LFE25:
	.size	control_uninit, .-control_uninit
	.section	.rodata
.LC5:
	.string	"input_empty"
.LC6:
	.string	"in msg_body[0]=%hhu\n"
.LC7:
	.string	"in msg_body[1]=%hhu\n"
.LC8:
	.string	"in short[0]=%i\n"
.LC9:
	.string	"lf_data_len"
.LC10:
	.string	"lf_data"
	.align 8
.LC11:
	.string	"\nFilter <%s> script_body_status: %i.\n"
	.align 8
.LC12:
	.string	"\nFilter <%s> bad script_body_status: %i.\n"
.LC13:
	.string	"lf_data_out_len"
.LC14:
	.string	"Type on top: %i\n"
.LC15:
	.string	"------- size from lua %lu\n"
.LC16:
	.string	"lf_data_out"
.LC17:
	.string	"out msg_body[0]=%hhu\n"
.LC18:
	.string	"out msg_body[1]=%hhu\n"
.LC19:
	.string	"out msg_body[2]=%hhu\n"
.LC20:
	.string	"out msg_body[3]=%hhu\n"
.LC21:
	.string	"out short[0]=%i\n"
.LC22:
	.string	"out str_len =%lu\n"
	.align 8
.LC23:
	.string	"-----------------------------------------"
.LC24:
	.string	"\nFilter <%s> Lua error.\n"
.LC25:
	.string	"Lua error description:<%s>.\n"
	.text
	.type	control_process, @function
control_process:
.LFB26:
	.loc 2 122 1
	.cfi_startproc
	endbr64
	pushq	%rbp
	.cfi_def_cfa_offset 16
	.cfi_offset 6, -16
	movq	%rsp, %rbp
	.cfi_def_cfa_register 6
	addq	$-128, %rsp
	movq	%rdi, -120(%rbp)
	.loc 2 122 1
	movq	%fs:40, %rax
	movq	%rax, -8(%rbp)
	xorl	%eax, %eax
	.loc 2 123 14
	movq	-120(%rbp), %rax
	movq	80(%rax), %rax
	movq	%rax, -56(%rbp)
	.loc 2 125 9
	movq	$0, -80(%rbp)
	.loc 2 126 5
	movl	$0, -104(%rbp)
	.loc 2 129 8
	movq	-56(%rbp), %rax
	movzbl	24(%rax), %eax
	.loc 2 129 4
	testb	%al, %al
	jne	.L27
	.loc 2 129 25 discriminator 1
	movq	-56(%rbp), %rax
	movzbl	25(%rax), %eax
	.loc 2 129 19 discriminator 1
	testb	%al, %al
	jne	.L27
	.loc 2 131 2
	movq	-120(%rbp), %rax
	movq	%rax, %rdi
	call	run_preambula
	.loc 2 134 7
	jmp	.L27
.L41:
.LBB7:
	.loc 2 136 15
	movl	$0, -100(%rbp)
	.loc 2 137 9
	movq	-56(%rbp), %rax
	movzbl	24(%rax), %eax
	.loc 2 137 5
	testb	%al, %al
	jne	.L28
	.loc 2 137 25 discriminator 1
	movq	-56(%rbp), %rax
	movq	16(%rax), %rax
	.loc 2 137 20 discriminator 1
	testq	%rax, %rax
	je	.L28
	.loc 2 137 45 discriminator 2
	movq	-56(%rbp), %rax
	movzbl	25(%rax), %eax
	.loc 2 137 40 discriminator 2
	testb	%al, %al
	je	.L28
.LBB8:
	.loc 2 139 41
	movq	-120(%rbp), %rax
	movq	48(%rax), %rax
	.loc 2 139 25
	movq	(%rax), %rax
	movq	%rax, %rdi
	call	ms_queue_empty
	movb	%al, -110(%rbp)
	.loc 2 140 4
	movzbl	-110(%rbp), %edx
	movq	-56(%rbp), %rax
	movq	(%rax), %rax
	movq	%rdx, %rsi
	movq	%rax, %rdi
	call	lua_pushinteger@PLT
	.loc 2 141 4
	movq	-56(%rbp), %rax
	movq	(%rax), %rax
	leaq	.LC5(%rip), %rdx
	movq	%rdx, %rsi
	movq	%rax, %rdi
	call	lua_setglobal@PLT
.LBB9:
	.loc 2 144 41
	movq	-48(%rbp), %rax
	movq	32(%rax), %rax
	.loc 2 144 49
	movzbl	(%rax), %eax
	.loc 2 144 7
	movzbl	%al, %eax
	movl	%eax, %esi
	leaq	.LC6(%rip), %rax
	movq	%rax, %rdi
	movl	$0, %eax
	call	printf@PLT
	.loc 2 145 41
	movq	-48(%rbp), %rax
	movq	32(%rax), %rax
	.loc 2 145 49
	addq	$1, %rax
	movzbl	(%rax), %eax
	.loc 2 145 7
	movzbl	%al, %eax
	movl	%eax, %esi
	leaq	.LC7(%rip), %rax
	movq	%rax, %rdi
	movl	$0, %eax
	call	printf@PLT
	.loc 2 146 46
	movq	-48(%rbp), %rax
	movq	32(%rax), %rax
	.loc 2 146 34
	movzwl	(%rax), %eax
	.loc 2 146 7
	cwtl
	movl	%eax, %esi
	leaq	.LC8(%rip), %rax
	movq	%rax, %rdi
	movl	$0, %eax
	call	printf@PLT
	.loc 2 148 29
	movq	-48(%rbp), %rax
	movq	%rax, %rdi
	call	msgdsize@PLT
	.loc 2 148 12
	addq	%rax, %rax
	movq	%rax, -40(%rbp)
	.loc 2 149 5
	movq	-40(%rbp), %rdx
	movq	-56(%rbp), %rax
	movq	(%rax), %rax
	movq	%rdx, %rsi
	movq	%rax, %rdi
	call	lua_pushinteger@PLT
	.loc 2 150 5
	movq	-56(%rbp), %rax
	movq	(%rax), %rax
	leaq	.LC9(%rip), %rdx
	movq	%rdx, %rsi
	movq	%rax, %rdi
	call	lua_setglobal@PLT
	.loc 2 151 43
	movq	-48(%rbp), %rax
	movq	32(%rax), %rcx
	.loc 2 151 5
	movq	-56(%rbp), %rax
	movq	(%rax), %rax
	movq	-40(%rbp), %rdx
	movq	%rcx, %rsi
	movq	%rax, %rdi
	call	lua_pushlstring@PLT
.LBE9:
	.loc 2 154 4
	movq	-56(%rbp), %rax
	movq	(%rax), %rax
	leaq	.LC10(%rip), %rdx
	movq	%rdx, %rsi
	movq	%rax, %rdi
	call	lua_setglobal@PLT
	.loc 2 158 22
	movq	-56(%rbp), %rax
	movq	(%rax), %rax
	movq	%rax, %rdi
	call	lua_gettop@PLT
	movl	%eax, -96(%rbp)
	.loc 2 159 3
	movl	-96(%rbp), %eax
	notl	%eax
	movl	%eax, %edx
	movq	-56(%rbp), %rax
	movq	(%rax), %rax
	movl	%edx, %esi
	movq	%rax, %rdi
	call	lua_settop@PLT
	.loc 2 162 10
	movq	-56(%rbp), %rax
	movq	16(%rax), %rdx
	.loc 2 162 10
	movq	-56(%rbp), %rax
	movq	(%rax), %rax
	movq	%rdx, %rsi
	movq	%rax, %rdi
	call	luaL_loadstring@PLT
	.loc 2 162 11
	testl	%eax, %eax
	jne	.L29
	.loc 2 162 14 discriminator 2
	movq	-56(%rbp), %rax
	movq	(%rax), %rax
	movl	$0, %r9d
	movl	$0, %r8d
	movl	$0, %ecx
	movl	$-1, %edx
	movl	$0, %esi
	movq	%rax, %rdi
	call	lua_pcallk@PLT
	.loc 2 162 11 discriminator 2
	testl	%eax, %eax
	je	.L30
.L29:
	.loc 2 162 11 is_stmt 0 discriminator 3
	movl	$1, %eax
	jmp	.L31
.L30:
	.loc 2 162 11 discriminator 4
	movl	$0, %eax
.L31:
	.loc 2 162 8 is_stmt 1 discriminator 6
	movl	%eax, -104(%rbp)
	.loc 2 165 7 discriminator 6
	cmpl	$0, -104(%rbp)
	jne	.L32
.LBB10:
	.loc 2 167 29
	movq	-56(%rbp), %rax
	movq	(%rax), %rax
	movq	%rax, %rdi
	call	lua_gettop@PLT
	movl	%eax, %ecx
	movq	-56(%rbp), %rax
	movq	(%rax), %rax
	movl	$0, %edx
	movl	%ecx, %esi
	movq	%rax, %rdi
	call	lua_tointegerx@PLT
	.loc 2 167 9
	movl	%eax, -92(%rbp)
	.loc 2 168 8
	cmpl	$0, -92(%rbp)
	js	.L33
	.loc 2 170 57
	movq	-120(%rbp), %rax
	movq	(%rax), %rax
	.loc 2 170 6
	movq	8(%rax), %rax
	movl	-92(%rbp), %edx
	movq	%rax, %rsi
	leaq	.LC11(%rip), %rax
	movq	%rax, %rdi
	movl	$0, %eax
	call	printf@PLT
	jmp	.L34
.L33:
	.loc 2 175 61
	movq	-120(%rbp), %rax
	movq	(%rax), %rax
	.loc 2 175 6
	movq	8(%rax), %rax
	movl	-92(%rbp), %edx
	movq	%rax, %rsi
	leaq	.LC12(%rip), %rax
	movq	%rax, %rdi
	movl	$0, %eax
	call	printf@PLT
.L34:
	.loc 2 180 5
	movq	-56(%rbp), %rax
	movq	(%rax), %rax
	leaq	.LC13(%rip), %rdx
	movq	%rdx, %rsi
	movq	%rax, %rdi
	call	lua_getglobal@PLT
	.loc 2 181 12
	movq	$0, -72(%rbp)
	.loc 2 182 24
	movq	-56(%rbp), %rax
	movq	(%rax), %rax
	movq	%rax, %rdi
	call	lua_gettop@PLT
	movl	%eax, %edx
	movq	-56(%rbp), %rax
	movq	(%rax), %rax
	movl	%edx, %esi
	movq	%rax, %rdi
	call	lua_type@PLT
	.loc 2 182 10
	movb	%al, -109(%rbp)
	.loc 2 183 5
	movsbl	-109(%rbp), %eax
	movl	%eax, %esi
	leaq	.LC14(%rip), %rax
	movq	%rax, %rdi
	movl	$0, %eax
	call	printf@PLT
	.loc 2 184 8
	cmpb	$3, -109(%rbp)
	jne	.L35
	.loc 2 187 14
	movq	-56(%rbp), %rax
	movq	(%rax), %rax
	movq	%rax, %rdi
	call	lua_gettop@PLT
	movl	%eax, %ecx
	movq	-56(%rbp), %rax
	movq	(%rax), %rax
	movl	$0, %edx
	movl	%ecx, %esi
	movq	%rax, %rdi
	call	lua_tointegerx@PLT
	.loc 2 186 16
	movq	%rax, -72(%rbp)
	.loc 2 188 6
	movq	-72(%rbp), %rax
	movq	%rax, %rsi
	leaq	.LC15(%rip), %rax
	movq	%rax, %rdi
	movl	$0, %eax
	call	printf@PLT
.L35:
	.loc 2 190 4
	movq	-56(%rbp), %rax
	movq	(%rax), %rax
	movl	$-2, %esi
	movq	%rax, %rdi
	call	lua_settop@PLT
	.loc 2 194 5
	movq	-56(%rbp), %rax
	movq	(%rax), %rax
	leaq	.LC16(%rip), %rdx
	movq	%rdx, %rsi
	movq	%rax, %rdi
	call	lua_getglobal@PLT
	.loc 2 195 12
	movq	$0, -88(%rbp)
	.loc 2 196 9
	movq	-56(%rbp), %rax
	movq	(%rax), %rax
	movq	%rax, %rdi
	call	lua_gettop@PLT
	movl	%eax, %edx
	movq	-56(%rbp), %rax
	movq	(%rax), %rax
	movl	%edx, %esi
	movq	%rax, %rdi
	call	lua_type@PLT
	.loc 2 196 8
	cmpl	$4, %eax
	jne	.L36
.LBB11:
	.loc 2 198 29
	movq	-56(%rbp), %rax
	movq	(%rax), %rax
	leaq	-88(%rbp), %rdx
	movl	$-1, %esi
	movq	%rax, %rdi
	call	lua_tolstring@PLT
	movq	%rax, -24(%rbp)
	.loc 2 199 9
	cmpq	$0, -24(%rbp)
	je	.L36
	.loc 2 199 19 discriminator 1
	movq	-88(%rbp), %rax
	testq	%rax, %rax
	je	.L36
.LBB12:
	.loc 2 201 48
	movq	-24(%rbp), %rax
	movzbl	(%rax), %eax
	.loc 2 201 7
	movsbl	%al, %eax
	movl	%eax, %esi
	leaq	.LC17(%rip), %rax
	movq	%rax, %rdi
	movl	$0, %eax
	call	printf@PLT
	.loc 2 202 48
	movq	-24(%rbp), %rax
	addq	$1, %rax
	movzbl	(%rax), %eax
	.loc 2 202 7
	movsbl	%al, %eax
	movl	%eax, %esi
	leaq	.LC18(%rip), %rax
	movq	%rax, %rdi
	movl	$0, %eax
	call	printf@PLT
	.loc 2 203 48
	movq	-24(%rbp), %rax
	addq	$2, %rax
	movzbl	(%rax), %eax
	.loc 2 203 7
	movsbl	%al, %eax
	movl	%eax, %esi
	leaq	.LC19(%rip), %rax
	movq	%rax, %rdi
	movl	$0, %eax
	call	printf@PLT
	.loc 2 204 48
	movq	-24(%rbp), %rax
	addq	$3, %rax
	movzbl	(%rax), %eax
	.loc 2 204 7
	movsbl	%al, %eax
	movl	%eax, %esi
	leaq	.LC20(%rip), %rax
	movq	%rax, %rdi
	movl	$0, %eax
	call	printf@PLT
	.loc 2 205 35
	movq	-24(%rbp), %rax
	movzwl	(%rax), %eax
	.loc 2 205 7
	cwtl
	movl	%eax, %esi
	leaq	.LC21(%rip), %rax
	movq	%rax, %rdi
	movl	$0, %eax
	call	printf@PLT
	.loc 2 206 7
	movq	-88(%rbp), %rax
	movq	%rax, %rsi
	leaq	.LC22(%rip), %rax
	movq	%rax, %rdi
	movl	$0, %eax
	call	printf@PLT
	.loc 2 207 7
	leaq	.LC23(%rip), %rax
	movq	%rax, %rdi
	call	puts@PLT
	.loc 2 208 14
	movq	-72(%rbp), %rax
	shrq	%rax
	movq	%rax, -16(%rbp)
	.loc 2 210 23
	movq	-16(%rbp), %rax
	.loc 2 210 16
	cltq
	movl	$0, %esi
	movq	%rax, %rdi
	call	allocb@PLT
	movq	%rax, -80(%rbp)
	.loc 2 211 20
	movq	-80(%rbp), %rax
	movq	40(%rax), %rax
	.loc 2 211 7
	movq	-16(%rbp), %rdx
	movq	-24(%rbp), %rcx
	movq	%rcx, %rsi
	movq	%rax, %rdi
	call	memcpy@PLT
	.loc 2 212 30
	movq	-80(%rbp), %rax
	movq	40(%rax), %rdx
	.loc 2 212 39
	movq	-16(%rbp), %rax
	addq	%rax, %rdx
	.loc 2 212 22
	movq	-80(%rbp), %rax
	movq	%rdx, 40(%rax)
.L36:
.LBE12:
.LBE11:
	.loc 2 215 4
	movq	-56(%rbp), %rax
	movq	(%rax), %rax
	movl	$-2, %esi
	movq	%rax, %rdi
	call	lua_settop@PLT
	.loc 2 218 23
	movq	-56(%rbp), %rax
	movq	(%rax), %rax
	movq	%rax, %rdi
	call	lua_gettop@PLT
	movl	%eax, -96(%rbp)
	.loc 2 219 4
	movl	-96(%rbp), %eax
	notl	%eax
	movl	%eax, %edx
	movq	-56(%rbp), %rax
	movq	(%rax), %rax
	movl	%edx, %esi
	movq	%rax, %rdi
	call	lua_settop@PLT
.LBE10:
	jmp	.L28
.L32:
.LBB13:
	.loc 2 223 43
	movq	-120(%rbp), %rax
	movq	(%rax), %rax
	.loc 2 223 5
	movq	8(%rax), %rax
	movq	%rax, %rsi
	leaq	.LC24(%rip), %rax
	movq	%rax, %rdi
	movl	$0, %eax
	call	printf@PLT
	.loc 2 224 25
	movq	-56(%rbp), %rax
	movq	(%rax), %rax
	movq	%rax, %rdi
	call	lua_gettop@PLT
	movl	%eax, %ecx
	movq	-56(%rbp), %rax
	movq	(%rax), %rax
	movl	$0, %edx
	movl	%ecx, %esi
	movq	%rax, %rdi
	call	lua_tolstring@PLT
	movq	%rax, -32(%rbp)
	.loc 2 225 8
	cmpq	$0, -32(%rbp)
	je	.L28
	.loc 2 227 6
	movq	-32(%rbp), %rax
	movq	%rax, %rsi
	leaq	.LC25(%rip), %rax
	movq	%rax, %rdi
	movl	$0, %eax
	call	printf@PLT
.L28:
.LBE13:
.LBE8:
	.loc 2 231 10
	movq	-48(%rbp), %rax
	movq	%rax, -64(%rbp)
	.loc 2 232 5
	cmpq	$0, -80(%rbp)
	je	.L37
	.loc 2 233 5
	movq	-80(%rbp), %rax
	movq	%rax, -64(%rbp)
.L37:
	.loc 2 236 10
	movl	$0, -108(%rbp)
	.loc 2 236 3
	jmp	.L38
.L40:
	.loc 2 239 8
	cmpl	$0, -100(%rbp)
	jne	.L39
	.loc 2 239 30 discriminator 1
	movq	-120(%rbp), %rax
	movq	56(%rax), %rdx
	.loc 2 239 39 discriminator 1
	movl	-108(%rbp), %eax
	cltq
	salq	$3, %rax
	addq	%rdx, %rax
	movq	(%rax), %rax
	.loc 2 239 25 discriminator 1
	testq	%rax, %rax
	je	.L39
	.loc 2 240 8
	cmpq	$0, -64(%rbp)
	je	.L39
	.loc 2 241 6
	movq	-64(%rbp), %rax
	movq	%rax, %rdi
	call	dupmsg@PLT
	movq	%rax, %rdx
	.loc 2 241 20
	movq	-120(%rbp), %rax
	movq	56(%rax), %rcx
	.loc 2 241 29
	movl	-108(%rbp), %eax
	cltq
	salq	$3, %rax
	addq	%rcx, %rax
	.loc 2 241 6
	movq	(%rax), %rax
	movq	%rdx, %rsi
	movq	%rax, %rdi
	call	ms_queue_put
.L39:
	.loc 2 236 39 discriminator 2
	addl	$1, -108(%rbp)
.L38:
	.loc 2 236 20 discriminator 1
	movq	-120(%rbp), %rax
	movq	(%rax), %rax
	.loc 2 236 26 discriminator 1
	movl	44(%rax), %eax
	.loc 2 236 17 discriminator 1
	cmpl	%eax, -108(%rbp)
	jl	.L40
	.loc 2 244 2
	movq	-80(%rbp), %rax
	movq	%rax, %rdi
	call	freemsg@PLT
	.loc 2 245 2
	movq	-48(%rbp), %rax
	movq	%rax, %rdi
	call	freemsg@PLT
.L27:
.LBE7:
	.loc 2 134 28
	movq	-120(%rbp), %rax
	movq	48(%rax), %rax
	.loc 2 134 14
	movq	(%rax), %rax
	movq	%rax, %rdi
	call	ms_queue_get
	movq	%rax, -48(%rbp)
	.loc 2 134 42
	cmpq	$0, -48(%rbp)
	jne	.L41
	.loc 2 247 1
	nop
	movq	-8(%rbp), %rax
	subq	%fs:40, %rax
	je	.L42
	call	__stack_chk_fail@PLT
.L42:
	leave
	.cfi_def_cfa 7, 8
	ret
	.cfi_endproc
.LFE26:
	.size	control_process, .-control_process
	.type	control_stop, @function
control_stop:
.LFB27:
	.loc 2 253 1
	.cfi_startproc
	endbr64
	pushq	%rbp
	.cfi_def_cfa_offset 16
	.cfi_offset 6, -16
	movq	%rsp, %rbp
	.cfi_def_cfa_register 6
	subq	$32, %rsp
	movq	%rdi, -24(%rbp)
	movq	%rsi, -32(%rbp)
	.loc 2 254 15
	movq	-24(%rbp), %rax
	movq	80(%rax), %rax
	movq	%rax, -8(%rbp)
	.loc 2 255 13
	movq	-8(%rbp), %rax
	movb	$1, 24(%rax)
	.loc 2 256 5
	cmpq	$0, -32(%rbp)
	je	.L44
	.loc 2 258 7
	movq	-8(%rbp), %rax
	movq	16(%rax), %rax
	.loc 2 258 5
	testq	%rax, %rax
	je	.L45
	.loc 2 259 11
	movq	-8(%rbp), %rax
	movq	16(%rax), %rax
	.loc 2 259 2
	movq	%rax, %rdi
	call	ortp_free@PLT
.L45:
	.loc 2 260 18
	movq	-32(%rbp), %rax
	movq	(%rax), %rax
	movq	%rax, %rdi
	call	ortp_strdup@PLT
	.loc 2 260 17
	movq	-8(%rbp), %rdx
	movq	%rax, 16(%rdx)
	.loc 2 261 1
	movq	-32(%rbp), %rax
	movq	(%rax), %rax
	movq	%rax, %rdi
	call	ortp_free@PLT
.L44:
	.loc 2 263 9
	movl	$0, %eax
	.loc 2 264 1
	leave
	.cfi_def_cfa 7, 8
	ret
	.cfi_endproc
.LFE27:
	.size	control_stop, .-control_stop
	.type	control_run, @function
control_run:
.LFB28:
	.loc 2 271 1
	.cfi_startproc
	endbr64
	pushq	%rbp
	.cfi_def_cfa_offset 16
	.cfi_offset 6, -16
	movq	%rsp, %rbp
	.cfi_def_cfa_register 6
	subq	$32, %rsp
	movq	%rdi, -24(%rbp)
	movq	%rsi, -32(%rbp)
	.loc 2 272 15
	movq	-24(%rbp), %rax
	movq	80(%rax), %rax
	movq	%rax, -8(%rbp)
	.loc 2 273 13
	movq	-8(%rbp), %rax
	movb	$0, 24(%rax)
	.loc 2 274 5
	cmpq	$0, -32(%rbp)
	je	.L48
	.loc 2 276 7
	movq	-8(%rbp), %rax
	movq	16(%rax), %rax
	.loc 2 276 5
	testq	%rax, %rax
	je	.L49
	.loc 2 277 11
	movq	-8(%rbp), %rax
	movq	16(%rax), %rax
	.loc 2 277 2
	movq	%rax, %rdi
	call	ortp_free@PLT
.L49:
	.loc 2 278 18
	movq	-32(%rbp), %rax
	movq	(%rax), %rax
	movq	%rax, %rdi
	call	ortp_strdup@PLT
	.loc 2 278 17
	movq	-8(%rbp), %rdx
	movq	%rax, 16(%rdx)
	.loc 2 279 1
	movq	-32(%rbp), %rax
	movq	(%rax), %rax
	movq	%rax, %rdi
	call	ortp_free@PLT
.L48:
	.loc 2 281 9
	movl	$0, %eax
	.loc 2 282 1
	leave
	.cfi_def_cfa 7, 8
	ret
	.cfi_endproc
.LFE28:
	.size	control_run, .-control_run
	.type	control_set_preamble, @function
control_set_preamble:
.LFB29:
	.loc 2 288 1
	.cfi_startproc
	endbr64
	pushq	%rbp
	.cfi_def_cfa_offset 16
	.cfi_offset 6, -16
	movq	%rsp, %rbp
	.cfi_def_cfa_register 6
	subq	$32, %rsp
	movq	%rdi, -24(%rbp)
	movq	%rsi, -32(%rbp)
	.loc 2 289 15
	movq	-24(%rbp), %rax
	movq	80(%rax), %rax
	movq	%rax, -8(%rbp)
	.loc 2 290 22
	movq	-8(%rbp), %rax
	movb	$0, 25(%rax)
	.loc 2 291 5
	cmpq	$0, -32(%rbp)
	je	.L52
	.loc 2 293 7
	movq	-8(%rbp), %rax
	movq	8(%rax), %rax
	.loc 2 293 5
	testq	%rax, %rax
	je	.L53
	.loc 2 294 11
	movq	-8(%rbp), %rax
	movq	8(%rax), %rax
	.loc 2 294 2
	movq	%rax, %rdi
	call	ortp_free@PLT
.L53:
	.loc 2 295 22
	movq	-32(%rbp), %rax
	movq	(%rax), %rax
	movq	%rax, %rdi
	call	ortp_strdup@PLT
	.loc 2 295 21
	movq	-8(%rbp), %rdx
	movq	%rax, 8(%rdx)
	.loc 2 296 1
	movq	-32(%rbp), %rax
	movq	(%rax), %rax
	movq	%rax, %rdi
	call	ortp_free@PLT
.L52:
	.loc 2 298 9
	movl	$0, %eax
	.loc 2 299 1
	leave
	.cfi_def_cfa 7, 8
	ret
	.cfi_endproc
.LFE29:
	.size	control_set_preamble, .-control_set_preamble
	.section	.data.rel.local,"aw"
	.align 32
	.type	control_methods, @object
	.size	control_methods, 64
control_methods:
	.long	262209796
	.zero	4
	.quad	control_stop
	.long	262209537
	.zero	4
	.quad	control_run
	.long	262210049
	.zero	4
	.quad	control_set_preamble
	.long	0
	.zero	4
	.quad	0
	.globl	lua_filter_desc
	.section	.rodata
.LC26:
	.string	"LUA_FILTER"
	.align 8
.LC27:
	.string	"A filter that runs a Lua-script."
	.section	.data.rel.local
	.align 32
	.type	lua_filter_desc, @object
	.size	lua_filter_desc, 104
lua_filter_desc:
	.long	4001
	.zero	4
	.quad	.LC26
	.quad	.LC27
	.long	0
	.zero	12
	.long	1
	.long	1
	.quad	control_init
	.zero	8
	.quad	control_process
	.zero	8
	.quad	control_uninit
	.quad	control_methods
	.zero	8
	.text
.Letext0:
	.file 3 "/usr/include/x86_64-linux-gnu/bits/types.h"
	.file 4 "/usr/lib/gcc/x86_64-linux-gnu/11/include/stddef.h"
	.file 5 "/usr/include/x86_64-linux-gnu/bits/types/struct_timeval.h"
	.file 6 "/usr/include/x86_64-linux-gnu/bits/thread-shared-types.h"
	.file 7 "/usr/include/x86_64-linux-gnu/bits/struct_mutex.h"
	.file 8 "/usr/include/x86_64-linux-gnu/bits/pthreadtypes.h"
	.file 9 "/usr/include/unistd.h"
	.file 10 "/usr/include/x86_64-linux-gnu/bits/stdint-uintn.h"
	.file 11 "/usr/include/x86_64-linux-gnu/bits/sockaddr.h"
	.file 12 "/usr/include/x86_64-linux-gnu/bits/socket.h"
	.file 13 "/usr/include/netinet/in.h"
	.file 14 "/usr/include/bctoolbox/port.h"
	.file 15 "/usr/include/bctoolbox/list.h"
	.file 16 "/usr/include/ortp/port.h"
	.file 17 "/usr/include/ortp/str_utils.h"
	.file 18 "/usr/include/mediastreamer2/msfilter.h"
	.file 19 "/usr/include/mediastreamer2/allfilters.h"
	.file 20 "/usr/include/mediastreamer2/box-plot.h"
	.file 21 "/usr/include/mediastreamer2/msfactory.h"
	.file 22 "/usr/include/mediastreamer2/devices.h"
	.file 23 "/usr/include/lua5.3/lua.h"
	.file 24 "/usr/include/lua5.3/lauxlib.h"
	.file 25 "/usr/include/string.h"
	.file 26 "/usr/include/lua5.3/lualib.h"
	.file 27 "/usr/include/stdio.h"
	.file 28 "lua_filter.h"
	.section	.note.GNU-stack,"",@progbits
	.section	.note.gnu.property,"a"
	.align 8
	.long	1f - 0f
	.long	4f - 1f
	.long	5
0:
	.string	"GNU"
1:
	.align 8
	.long	0xc0000002
	.long	3f - 2f
2:
	.long	0x3
3:
	.align 8
4:
