	.file	"lua_filter_demo.c"
	.text
.Ltext0:
	.file 0 "/home/primauser/plastov/Mediastreamer2_LuaFilter/src" "lua_filter_demo.c"
	.section	.rodata
.LC0:
	.string	"--help"
	.align 8
.LC1:
	.string	"  %s, developed  by Igor Plastov\nigor.plastov@yandex.ru\n\n"
.LC2:
	.string	"--help      List of options."
	.align 8
.LC3:
	.string	"--version   Version of application."
	.align 8
.LC4:
	.string	"--scp       Full name of containing preambula of Lua-script file."
	.align 8
.LC5:
	.string	"--scb       Full name of containing body of Lua-script file."
	.align 8
.LC6:
	.string	"--gen       Set generator's frequency, Hz. Soundcard input will be ignored."
	.align 8
.LC7:
	.string	"--rec       Make recording to a file './record.wav'."
.LC8:
	.string	"--version"
.LC9:
	.string	"0.1"
.LC10:
	.string	"--scp"
	.align 8
.LC11:
	.string	"Lua-script ptrambula file name: %s\n"
.LC12:
	.string	"--scb"
	.align 8
.LC13:
	.string	"Lua-script body file name: %s\n"
.LC14:
	.string	"--gen"
.LC15:
	.string	"Generator's frequency: %i Hz\n"
.LC16:
	.string	"--rec"
.LC17:
	.string	"Recording enabled: %i\n"
	.text
	.globl	scan_args
	.type	scan_args, @function
scan_args:
.LFB20:
	.file 1 "lua_filter_demo.c"
	.loc 1 42 1
	.cfi_startproc
	endbr64
	pushq	%rbp
	.cfi_def_cfa_offset 16
	.cfi_offset 6, -16
	movq	%rsp, %rbp
	.cfi_def_cfa_register 6
	subq	$48, %rsp
	movl	%edi, -20(%rbp)
	movq	%rsi, -32(%rbp)
	movq	%rdx, -40(%rbp)
	.loc 1 44 11
	movl	$0, -16(%rbp)
	.loc 1 44 5
	jmp	.L2
.L9:
	.loc 1 46 25
	movl	-16(%rbp), %eax
	cltq
	leaq	0(,%rax,8), %rdx
	movq	-32(%rbp), %rax
	addq	%rdx, %rax
	.loc 1 46 14
	movq	(%rax), %rax
	leaq	.LC0(%rip), %rdx
	movq	%rdx, %rsi
	movq	%rax, %rdi
	call	strcmp@PLT
	.loc 1 46 12
	testl	%eax, %eax
	jne	.L3
.LBB2:
	.loc 1 48 19
	movq	-32(%rbp), %rax
	movq	(%rax), %rax
	movq	%rax, -8(%rbp)
	.loc 1 48 31
	addq	$2, -8(%rbp)
	.loc 1 49 13
	movq	-8(%rbp), %rax
	movq	%rax, %rsi
	leaq	.LC1(%rip), %rax
	movq	%rax, %rdi
	movl	$0, %eax
	call	printf@PLT
	.loc 1 50 13
	leaq	.LC2(%rip), %rax
	movq	%rax, %rdi
	call	puts@PLT
	.loc 1 51 13
	leaq	.LC3(%rip), %rax
	movq	%rax, %rdi
	call	puts@PLT
	.loc 1 52 13
	leaq	.LC4(%rip), %rax
	movq	%rax, %rdi
	call	puts@PLT
	.loc 1 53 13
	leaq	.LC5(%rip), %rax
	movq	%rax, %rdi
	call	puts@PLT
	.loc 1 54 13
	leaq	.LC6(%rip), %rax
	movq	%rax, %rdi
	call	puts@PLT
	.loc 1 55 13
	leaq	.LC7(%rip), %rax
	movq	%rax, %rdi
	call	puts@PLT
	.loc 1 56 13
	movl	$0, %edi
	call	exit@PLT
.L3:
.LBE2:
	.loc 1 59 25
	movl	-16(%rbp), %eax
	cltq
	leaq	0(,%rax,8), %rdx
	movq	-32(%rbp), %rax
	addq	%rdx, %rax
	.loc 1 59 14
	movq	(%rax), %rax
	leaq	.LC8(%rip), %rdx
	movq	%rdx, %rsi
	movq	%rax, %rdi
	call	strcmp@PLT
	.loc 1 59 12
	testl	%eax, %eax
	jne	.L4
	.loc 1 61 13
	leaq	.LC9(%rip), %rax
	movq	%rax, %rdi
	call	puts@PLT
	.loc 1 62 13
	movl	$0, %edi
	call	exit@PLT
.L4:
	.loc 1 65 25
	movl	-16(%rbp), %eax
	cltq
	leaq	0(,%rax,8), %rdx
	movq	-32(%rbp), %rax
	addq	%rdx, %rax
	.loc 1 65 14
	movq	(%rax), %rax
	leaq	.LC10(%rip), %rdx
	movq	%rdx, %rsi
	movq	%rax, %rdi
	call	strcmp@PLT
	.loc 1 65 12
	testl	%eax, %eax
	jne	.L5
	.loc 1 67 53
	movl	-16(%rbp), %eax
	cltq
	addq	$1, %rax
	leaq	0(,%rax,8), %rdx
	movq	-32(%rbp), %rax
	addq	%rdx, %rax
	.loc 1 67 39
	movq	(%rax), %rax
	movq	%rax, %rdi
	call	ortp_strdup@PLT
	.loc 1 67 38
	movq	-40(%rbp), %rdx
	movq	%rax, 80(%rdx)
	.loc 1 68 13
	movq	-40(%rbp), %rax
	movq	80(%rax), %rax
	movq	%rax, %rsi
	leaq	.LC11(%rip), %rax
	movq	%rax, %rdi
	movl	$0, %eax
	call	printf@PLT
.L5:
	.loc 1 71 25
	movl	-16(%rbp), %eax
	cltq
	leaq	0(,%rax,8), %rdx
	movq	-32(%rbp), %rax
	addq	%rdx, %rax
	.loc 1 71 14
	movq	(%rax), %rax
	leaq	.LC12(%rip), %rdx
	movq	%rdx, %rsi
	movq	%rax, %rdi
	call	strcmp@PLT
	.loc 1 71 12
	testl	%eax, %eax
	jne	.L6
	.loc 1 73 48
	movl	-16(%rbp), %eax
	cltq
	addq	$1, %rax
	leaq	0(,%rax,8), %rdx
	movq	-32(%rbp), %rax
	addq	%rdx, %rax
	.loc 1 73 34
	movq	(%rax), %rax
	movq	%rax, %rdi
	call	ortp_strdup@PLT
	.loc 1 73 33
	movq	-40(%rbp), %rdx
	movq	%rax, 88(%rdx)
	.loc 1 74 13
	movq	-40(%rbp), %rax
	movq	88(%rax), %rax
	movq	%rax, %rsi
	leaq	.LC13(%rip), %rax
	movq	%rax, %rdi
	movl	$0, %eax
	call	printf@PLT
.L6:
	.loc 1 77 25
	movl	-16(%rbp), %eax
	cltq
	leaq	0(,%rax,8), %rdx
	movq	-32(%rbp), %rax
	addq	%rdx, %rax
	.loc 1 77 14
	movq	(%rax), %rax
	leaq	.LC14(%rip), %rdx
	movq	%rdx, %rsi
	movq	%rax, %rdi
	call	strcmp@PLT
	.loc 1 77 12
	testl	%eax, %eax
	jne	.L7
.LBB3:
	.loc 1 79 25
	movq	-40(%rbp), %rax
	movb	$1, 41(%rax)
	.loc 1 80 33
	movl	-16(%rbp), %eax
	cltq
	addq	$1, %rax
	leaq	0(,%rax,8), %rdx
	movq	-32(%rbp), %rax
	addq	%rdx, %rax
	.loc 1 80 24
	movq	(%rax), %rax
	movq	%rax, %rdi
	call	atoi@PLT
	movl	%eax, -12(%rbp)
	.loc 1 81 42
	movq	-40(%rbp), %rax
	movl	-12(%rbp), %edx
	movl	%edx, 12(%rax)
	.loc 1 82 13
	movq	-40(%rbp), %rax
	movl	12(%rax), %eax
	movl	%eax, %esi
	leaq	.LC15(%rip), %rax
	movq	%rax, %rdi
	movl	$0, %eax
	call	printf@PLT
.L7:
.LBE3:
	.loc 1 85 26
	movl	-16(%rbp), %eax
	cltq
	leaq	0(,%rax,8), %rdx
	movq	-32(%rbp), %rax
	addq	%rdx, %rax
	.loc 1 85 15
	movq	(%rax), %rax
	leaq	.LC16(%rip), %rdx
	movq	%rdx, %rsi
	movq	%rax, %rdi
	call	strcmp@PLT
	.loc 1 85 13
	testl	%eax, %eax
	jne	.L8
	.loc 1 87 25
	movq	-40(%rbp), %rax
	movb	$1, 42(%rax)
	.loc 1 88 49
	movq	-40(%rbp), %rax
	movzbl	42(%rax), %eax
	.loc 1 88 13
	movzbl	%al, %eax
	movl	%eax, %esi
	leaq	.LC17(%rip), %rax
	movq	%rax, %rdi
	movl	$0, %eax
	call	printf@PLT
.L8:
	.loc 1 44 24 discriminator 2
	addl	$1, -16(%rbp)
.L2:
	.loc 1 44 16 discriminator 1
	movl	-16(%rbp), %eax
	cmpl	-20(%rbp), %eax
	jl	.L9
	.loc 1 91 1
	nop
	nop
	leave
	.cfi_def_cfa 7, 8
	ret
	.cfi_endproc
.LFE20:
	.size	scan_args, .-scan_args
	.section	.rodata
.LC18:
	.string	"r"
	.align 8
.LC19:
	.string	"\nScript's code <%s>:\n{\n%s\n}\nwill be loaded to lua-filter.\n\n"
	.text
	.globl	get_file
	.type	get_file, @function
get_file:
.LFB21:
	.loc 1 95 32
	.cfi_startproc
	endbr64
	pushq	%rbp
	.cfi_def_cfa_offset 16
	.cfi_offset 6, -16
	movq	%rsp, %rbp
	.cfi_def_cfa_register 6
	subq	$224, %rsp
	movq	%rdi, -216(%rbp)
	.loc 1 95 32
	movq	%fs:40, %rax
	movq	%rax, -8(%rbp)
	xorl	%eax, %eax
	.loc 1 97 9
	leaq	-160(%rbp), %rdx
	movq	-216(%rbp), %rax
	movq	%rdx, %rsi
	movq	%rax, %rdi
	call	stat@PLT
	.loc 1 97 8
	testl	%eax, %eax
	jns	.L11
	.loc 1 98 15
	movl	$0, %eax
	jmp	.L14
.L11:
	.loc 1 100 11
	movq	$0, -200(%rbp)
	.loc 1 101 41
	movq	-112(%rbp), %rax
	.loc 1 101 18
	movq	%rax, -192(%rbp)
	.loc 1 102 17
	movq	-192(%rbp), %rax
	addq	$1, %rax
	movq	%rax, %rdi
	call	ortp_malloc0@PLT
	movq	%rax, -184(%rbp)
	.loc 1 103 15
	movq	-216(%rbp), %rax
	leaq	.LC18(%rip), %rdx
	movq	%rdx, %rsi
	movq	%rax, %rdi
	call	fopen@PLT
	movq	%rax, -176(%rbp)
	.loc 1 104 23
	movq	-176(%rbp), %rcx
	movq	-192(%rbp), %rdx
	movq	-184(%rbp), %rax
	movl	$1, %esi
	movq	%rax, %rdi
	call	fread@PLT
	movq	%rax, -168(%rbp)
	.loc 1 105 5
	movq	-176(%rbp), %rax
	movq	%rax, %rdi
	call	fclose@PLT
	.loc 1 106 8
	cmpq	$0, -168(%rbp)
	je	.L13
	.loc 1 106 24 discriminator 1
	movq	-168(%rbp), %rax
	cmpq	-192(%rbp), %rax
	ja	.L13
	.loc 1 108 9
	movq	-184(%rbp), %rdx
	movq	-216(%rbp), %rax
	movq	%rax, %rsi
	leaq	.LC19(%rip), %rax
	movq	%rax, %rdi
	movl	$0, %eax
	call	printf@PLT
	.loc 1 111 13
	movq	-184(%rbp), %rax
	movq	%rax, -200(%rbp)
.L13:
	.loc 1 113 12
	movq	-200(%rbp), %rax
.L14:
	.loc 1 114 1 discriminator 1
	movq	-8(%rbp), %rdx
	subq	%fs:40, %rdx
	je	.L15
	.loc 1 114 1 is_stmt 0
	call	__stack_chk_fail@PLT
.L15:
	leave
	.cfi_def_cfa 7, 8
	ret
	.cfi_endproc
.LFE21:
	.size	get_file, .-get_file
	.section	.rodata
	.align 8
.LC20:
	.string	"Script's body <%s> was not loaded.\n"
	.text
	.type	load_script_body, @function
load_script_body:
.LFB22:
	.loc 1 119 1 is_stmt 1
	.cfi_startproc
	endbr64
	pushq	%rbp
	.cfi_def_cfa_offset 16
	.cfi_offset 6, -16
	movq	%rsp, %rbp
	.cfi_def_cfa_register 6
	subq	$32, %rsp
	movq	%rdi, -24(%rbp)
	movq	%rsi, -32(%rbp)
	.loc 1 119 1
	movq	%fs:40, %rax
	movq	%rax, -8(%rbp)
	xorl	%eax, %eax
	.loc 1 120 11
	movq	-24(%rbp), %rax
	movq	88(%rax), %rax
	.loc 1 120 8
	testq	%rax, %rax
	je	.L22
	.loc 1 122 17
	movq	-24(%rbp), %rax
	movq	88(%rax), %rax
	movq	%rax, %rdi
	call	get_file
	.loc 1 122 11
	movq	%rax, -16(%rbp)
	.loc 1 123 9
	movq	-16(%rbp), %rax
	.loc 1 123 8
	testq	%rax, %rax
	je	.L19
	.loc 1 125 9
	leaq	-16(%rbp), %rdx
	movq	-32(%rbp), %rax
	movl	$262209537, %esi
	movq	%rax, %rdi
	call	ms_filter_call_method@PLT
	jmp	.L16
.L19:
	.loc 1 129 9
	movq	-24(%rbp), %rax
	movq	88(%rax), %rax
	movq	%rax, %rsi
	leaq	.LC20(%rip), %rax
	movq	%rax, %rdi
	movl	$0, %eax
	call	printf@PLT
	jmp	.L16
.L22:
	.loc 1 120 31
	nop
.L16:
	.loc 1 132 1
	movq	-8(%rbp), %rax
	subq	%fs:40, %rax
	je	.L21
	call	__stack_chk_fail@PLT
.L21:
	leave
	.cfi_def_cfa 7, 8
	ret
	.cfi_endproc
.LFE22:
	.size	load_script_body, .-load_script_body
	.section	.rodata
	.align 8
.LC21:
	.string	"Script's preambula <%s> was not loaded.\n"
	.text
	.type	load_script_preambula, @function
load_script_preambula:
.LFB23:
	.loc 1 137 1
	.cfi_startproc
	endbr64
	pushq	%rbp
	.cfi_def_cfa_offset 16
	.cfi_offset 6, -16
	movq	%rsp, %rbp
	.cfi_def_cfa_register 6
	subq	$32, %rsp
	movq	%rdi, -24(%rbp)
	movq	%rsi, -32(%rbp)
	.loc 1 137 1
	movq	%fs:40, %rax
	movq	%rax, -8(%rbp)
	xorl	%eax, %eax
	.loc 1 138 11
	movq	-24(%rbp), %rax
	movq	80(%rax), %rax
	.loc 1 138 8
	testq	%rax, %rax
	je	.L29
	.loc 1 140 17
	movq	-24(%rbp), %rax
	movq	80(%rax), %rax
	movq	%rax, %rdi
	call	get_file
	.loc 1 140 11
	movq	%rax, -16(%rbp)
	.loc 1 141 9
	movq	-16(%rbp), %rax
	.loc 1 141 8
	testq	%rax, %rax
	je	.L26
	.loc 1 143 9
	leaq	-16(%rbp), %rdx
	movq	-32(%rbp), %rax
	movl	$262210049, %esi
	movq	%rax, %rdi
	call	ms_filter_call_method@PLT
	jmp	.L23
.L26:
	.loc 1 147 9
	movq	-24(%rbp), %rax
	movq	80(%rax), %rax
	movq	%rax, %rsi
	leaq	.LC21(%rip), %rax
	movq	%rax, %rdi
	movl	$0, %eax
	call	printf@PLT
	jmp	.L23
.L29:
	.loc 1 138 36
	nop
.L23:
	.loc 1 150 1
	movq	-8(%rbp), %rax
	subq	%fs:40, %rax
	je	.L28
	call	__stack_chk_fail@PLT
.L28:
	leave
	.cfi_def_cfa 7, 8
	ret
	.cfi_endproc
.LFE23:
	.size	load_script_preambula, .-load_script_preambula
	.type	build_sound_cards_table, @function
build_sound_cards_table:
.LFB24:
	.loc 1 155 1
	.cfi_startproc
	endbr64
	pushq	%rbp
	.cfi_def_cfa_offset 16
	.cfi_offset 6, -16
	movq	%rsp, %rbp
	.cfi_def_cfa_register 6
	pushq	%rbx
	subq	$56, %rsp
	.cfi_offset 3, -24
	movq	%rdi, -56(%rbp)
	.loc 1 159 32
	movq	-56(%rbp), %rax
	movq	48(%rax), %rax
	movq	%rax, %rdi
	call	ms_factory_get_snd_card_manager@PLT
	.loc 1 159 3
	movq	%rax, %rdi
	call	ms_snd_card_manager_get_list@PLT
	movq	%rax, -32(%rbp)
	.loc 1 160 9
	movq	-32(%rbp), %rax
	movq	%rax, %rdi
	call	bctbx_list_size@PLT
	movq	%rax, -24(%rbp)
	.loc 1 161 30
	movq	-24(%rbp), %rax
	addq	$1, %rax
	.loc 1 161 14
	salq	$3, %rax
	movq	%rax, %rdi
	call	ortp_malloc@PLT
	.loc 1 161 13
	movq	-56(%rbp), %rdx
	movq	%rax, 72(%rdx)
	.loc 1 162 10
	movl	$0, -36(%rbp)
	.loc 1 162 2
	jmp	.L31
.L32:
	.loc 1 164 63 discriminator 3
	movq	-32(%rbp), %rax
	movq	16(%rax), %rax
	.loc 1 164 5 discriminator 3
	movq	-56(%rbp), %rdx
	movq	72(%rdx), %rcx
	.loc 1 164 13 discriminator 3
	movl	-36(%rbp), %edx
	movslq	%edx, %rdx
	salq	$3, %rdx
	leaq	(%rcx,%rdx), %rbx
	.loc 1 164 19 discriminator 3
	movq	%rax, %rdi
	call	ms_snd_card_get_string_id@PLT
	.loc 1 164 17 discriminator 3
	movq	%rax, (%rbx)
	.loc 1 162 33 discriminator 3
	movq	-32(%rbp), %rax
	movq	(%rax), %rax
	movq	%rax, -32(%rbp)
	.loc 1 162 48 discriminator 3
	addl	$1, -36(%rbp)
.L31:
	.loc 1 162 20 discriminator 1
	cmpq	$0, -32(%rbp)
	jne	.L32
	.loc 1 166 4
	movq	-56(%rbp), %rax
	movq	72(%rax), %rdx
	.loc 1 166 12
	movq	-24(%rbp), %rax
	salq	$3, %rax
	addq	%rdx, %rax
	.loc 1 166 19
	movq	$0, (%rax)
	.loc 1 167 19
	movq	-24(%rbp), %rax
	movl	%eax, %edx
	movq	-56(%rbp), %rax
	movb	%dl, 64(%rax)
	.loc 1 168 1
	nop
	movq	-8(%rbp), %rbx
	leave
	.cfi_def_cfa 7, 8
	ret
	.cfi_endproc
.LFE24:
	.size	build_sound_cards_table, .-build_sound_cards_table
	.section	.rodata
	.align 8
.LC22:
	.string	"Will be used soundcard:\n<\n%s\n>\n"
.LC23:
	.string	"record.raw"
.LC24:
	.string	"File for recording <%s>.\n"
.LC25:
	.string	"sound"
	.align 8
.LC27:
	.string	"Sound from generator lasts %i ms.\n"
.LC28:
	.string	"Press ENTER to exit.\n "
.LC29:
	.string	"File recording was finished."
	.text
	.globl	main
	.type	main, @function
main:
.LFB25:
	.loc 1 172 1
	.cfi_startproc
	endbr64
	pushq	%rbp
	.cfi_def_cfa_offset 16
	.cfi_offset 6, -16
	movq	%rsp, %rbp
	.cfi_def_cfa_register 6
	subq	$224, %rsp
	movl	%edi, -212(%rbp)
	movq	%rsi, -224(%rbp)
	.loc 1 172 1
	movq	%fs:40, %rax
	movq	%rax, -8(%rbp)
	xorl	%eax, %eax
	.loc 1 174 14
	leaq	-112(%rbp), %rdx
	movl	$0, %eax
	movl	$12, %ecx
	movq	%rdx, %rdi
	rep stosq
	.loc 1 175 15
	call	ms_factory_new@PLT
	.loc 1 175 13
	movq	%rax, -64(%rbp)
	.loc 1 176 2
	movq	-64(%rbp), %rax
	movq	%rax, %rdi
	call	ms_factory_init_voip@PLT
	.loc 1 178 16
	movq	-64(%rbp), %rax
	movq	%rax, %rdi
	call	ms_factory_get_snd_card_manager@PLT
	.loc 1 178 14
	movq	%rax, -56(%rbp)
	.loc 1 179 5
	leaq	-112(%rbp), %rax
	movq	%rax, %rdi
	call	build_sound_cards_table
	.loc 1 183 5
	leaq	-112(%rbp), %rdx
	movq	-224(%rbp), %rcx
	movl	-212(%rbp), %eax
	movq	%rcx, %rsi
	movl	%eax, %edi
	call	scan_args
	.loc 1 186 55
	movq	-40(%rbp), %rax
	.loc 1 186 5
	movq	(%rax), %rax
	movq	%rax, %rsi
	leaq	.LC22(%rip), %rax
	movq	%rax, %rdi
	movl	$0, %eax
	call	printf@PLT
	.loc 1 188 45
	movq	-40(%rbp), %rax
	.loc 1 188 2
	movq	(%rax), %rdx
	movq	-56(%rbp), %rax
	movq	%rdx, %rsi
	movq	%rax, %rdi
	call	ms_snd_card_manager_get_card@PLT
	movq	%rax, -192(%rbp)
	.loc 1 190 31
	movq	-192(%rbp), %rax
	movq	%rax, %rdi
	call	ms_snd_card_create_reader@PLT
	movq	%rax, -184(%rbp)
	.loc 1 191 32
	movq	-192(%rbp), %rax
	movq	%rax, %rdi
	call	ms_snd_card_create_writer@PLT
	movq	%rax, -176(%rbp)
	.loc 1 193 28
	movq	-64(%rbp), %rax
	movl	$56, %esi
	movq	%rax, %rdi
	call	ms_factory_create_filter@PLT
	movq	%rax, -168(%rbp)
	.loc 1 194 25
	movq	-64(%rbp), %rax
	movl	$15, %esi
	movq	%rax, %rdi
	call	ms_factory_create_filter@PLT
	movq	%rax, -160(%rbp)
	.loc 1 197 2
	movq	-64(%rbp), %rax
	leaq	lua_filter_desc(%rip), %rdx
	movq	%rdx, %rsi
	movq	%rax, %rdi
	call	ms_factory_register_filter@PLT
	.loc 1 199 28
	movq	-64(%rbp), %rax
	movl	$4001, %esi
	movq	%rax, %rdi
	call	ms_factory_create_filter@PLT
	movq	%rax, -152(%rbp)
	.loc 1 202 24
	movq	-64(%rbp), %rax
	movl	$14, %esi
	movq	%rax, %rdi
	call	ms_factory_create_filter@PLT
	movq	%rax, -144(%rbp)
	.loc 1 203 19
	movq	-144(%rbp), %rax
	movq	%rax, -80(%rbp)
	.loc 1 205 19
	movq	-64(%rbp), %rax
	movl	$30, %esi
	movq	%rax, %rdi
	call	ms_factory_create_filter@PLT
	movq	%rax, -136(%rbp)
	.loc 1 208 24
	call	ms_ticker_new@PLT
	movq	%rax, -128(%rbp)
	.loc 1 211 13
	movzbl	-71(%rbp), %eax
	.loc 1 211 8
	testb	%al, %al
	je	.L34
	.loc 1 213 6
	movq	-160(%rbp), %rdx
	movq	-168(%rbp), %rax
	movl	$0, %ecx
	movl	$0, %esi
	movq	%rax, %rdi
	call	ms_filter_link@PLT
	.loc 1 214 6
	movq	-152(%rbp), %rdx
	movq	-160(%rbp), %rax
	movl	$0, %ecx
	movl	$0, %esi
	movq	%rax, %rdi
	call	ms_filter_link@PLT
	.loc 1 215 6
	movq	-136(%rbp), %rdx
	movq	-152(%rbp), %rax
	movl	$0, %ecx
	movl	$0, %esi
	movq	%rax, %rdi
	call	ms_filter_link@PLT
	.loc 1 217 6
	leaq	-112(%rbp), %rdx
	movq	-160(%rbp), %rax
	movl	$983840, %esi
	movq	%rax, %rdi
	call	ms_filter_call_method@PLT
	jmp	.L35
.L34:
	.loc 1 222 6
	movq	-152(%rbp), %rdx
	movq	-184(%rbp), %rax
	movl	$0, %ecx
	movl	$0, %esi
	movq	%rax, %rdi
	call	ms_filter_link@PLT
	.loc 1 223 6
	movq	-136(%rbp), %rdx
	movq	-152(%rbp), %rax
	movl	$0, %ecx
	movl	$0, %esi
	movq	%rax, %rdi
	call	ms_filter_link@PLT
.L35:
	.loc 1 226 5
	movq	-144(%rbp), %rdx
	movq	-136(%rbp), %rax
	movl	$0, %ecx
	movl	$0, %esi
	movq	%rax, %rdi
	call	ms_filter_link@PLT
	.loc 1 227 5
	movq	-176(%rbp), %rdx
	movq	-136(%rbp), %rax
	movl	$0, %ecx
	movl	$1, %esi
	movq	%rax, %rdi
	call	ms_filter_link@PLT
	.loc 1 230 5
	movq	-152(%rbp), %rdx
	leaq	-112(%rbp), %rax
	movq	%rdx, %rsi
	movq	%rax, %rdi
	call	load_script_preambula
	.loc 1 233 13
	movzbl	-71(%rbp), %eax
	.loc 1 233 8
	testb	%al, %al
	je	.L36
	.loc 1 235 5
	movq	-168(%rbp), %rdx
	movq	-128(%rbp), %rax
	movq	%rdx, %rsi
	movq	%rax, %rdi
	call	ms_ticker_attach@PLT
	jmp	.L37
.L36:
	.loc 1 239 5
	movq	-184(%rbp), %rdx
	movq	-128(%rbp), %rax
	movq	%rdx, %rsi
	movq	%rax, %rdi
	call	ms_ticker_attach@PLT
.L37:
	.loc 1 242 5
	movq	-152(%rbp), %rdx
	leaq	-112(%rbp), %rax
	movq	%rdx, %rsi
	movq	%rax, %rdi
	call	load_script_body
	.loc 1 244 14
	movzbl	-70(%rbp), %eax
	.loc 1 244 8
	testb	%al, %al
	je	.L38
.LBB4:
	.loc 1 246 15
	leaq	.LC23(%rip), %rax
	movq	%rax, -120(%rbp)
	.loc 1 247 9
	movq	-120(%rbp), %rax
	movq	%rax, %rsi
	leaq	.LC24(%rip), %rax
	movq	%rax, %rdi
	movl	$0, %eax
	call	printf@PLT
	.loc 1 248 9
	movq	-120(%rbp), %rdx
	movq	-144(%rbp), %rax
	movl	$917505, %esi
	movq	%rax, %rdi
	call	ms_filter_call_method@PLT
	.loc 1 249 9
	movq	-144(%rbp), %rax
	movl	$0, %edx
	movl	$917760, %esi
	movq	%rax, %rdi
	call	ms_filter_call_method@PLT
.L38:
.LBE4:
	.loc 1 253 13
	movzbl	-71(%rbp), %eax
	.loc 1 253 8
	testb	%al, %al
	je	.L39
	.loc 1 256 9
	leaq	-112(%rbp), %rax
	movl	$8, %edx
	leaq	.LC25(%rip), %rcx
	movq	%rcx, %rsi
	movq	%rax, %rdi
	call	strncpy@PLT
	.loc 1 258 32
	movl	$10000, -104(%rbp)
	.loc 1 259 33
	movss	.LC26(%rip), %xmm0
	movss	%xmm0, -92(%rbp)
	.loc 1 260 37
	movl	$0, -96(%rbp)
	.loc 1 261 33
	movss	.LC26(%rip), %xmm0
	movss	%xmm0, -92(%rbp)
	.loc 1 262 32
	movl	$0, -88(%rbp)
	.loc 1 263 36
	movl	$0, -84(%rbp)
	.loc 1 266 9
	leaq	-112(%rbp), %rdx
	movq	-160(%rbp), %rax
	movl	$983840, %esi
	movq	%rax, %rdi
	call	ms_filter_call_method@PLT
	.loc 1 268 9
	movl	-104(%rbp), %eax
	movl	%eax, %esi
	leaq	.LC27(%rip), %rax
	movq	%rax, %rdi
	movl	$0, %eax
	call	printf@PLT
.L39:
	.loc 1 271 5
	leaq	.LC28(%rip), %rax
	movq	%rax, %rdi
	movl	$0, %eax
	call	printf@PLT
	.loc 1 272 12
	call	getchar@PLT
	.loc 1 272 10
	movb	%al, -193(%rbp)
	.loc 1 273 10
	jmp	.L40
.L41:
	.loc 1 275 9
	movl	$500000, %edi
	call	ms_usleep@PLT
	.loc 1 276 11
	call	getchar@PLT
	.loc 1 276 10
	movb	%al, -193(%rbp)
.L40:
	.loc 1 273 13
	cmpb	$10, -193(%rbp)
	jne	.L41
	.loc 1 278 13
	movzbl	-70(%rbp), %eax
	.loc 1 278 8
	testb	%al, %al
	je	.L42
	.loc 1 281 9
	movq	-144(%rbp), %rax
	movl	$0, %edx
	movl	$918272, %esi
	movq	%rax, %rdi
	call	ms_filter_call_method@PLT
	.loc 1 282 9
	leaq	.LC29(%rip), %rax
	movq	%rax, %rdi
	call	puts@PLT
.L42:
	movl	$0, %eax
	.loc 1 284 1
	movq	-8(%rbp), %rdx
	subq	%fs:40, %rdx
	je	.L44
	call	__stack_chk_fail@PLT
.L44:
	leave
	.cfi_def_cfa 7, 8
	ret
	.cfi_endproc
.LFE25:
	.size	main, .-main
	.section	.rodata
	.align 4
.LC26:
	.long	1065353216
	.text
.Letext0:
	.file 2 "/usr/include/x86_64-linux-gnu/bits/types.h"
	.file 3 "/usr/include/x86_64-linux-gnu/bits/types/struct_timespec.h"
	.file 4 "/usr/include/x86_64-linux-gnu/bits/struct_stat.h"
	.file 5 "/usr/lib/gcc/x86_64-linux-gnu/11/include/stddef.h"
	.file 6 "/usr/include/x86_64-linux-gnu/bits/types/struct_timeval.h"
	.file 7 "/usr/include/x86_64-linux-gnu/bits/atomic_wide_counter.h"
	.file 8 "/usr/include/x86_64-linux-gnu/bits/thread-shared-types.h"
	.file 9 "/usr/include/x86_64-linux-gnu/bits/struct_mutex.h"
	.file 10 "/usr/include/x86_64-linux-gnu/bits/pthreadtypes.h"
	.file 11 "/usr/include/unistd.h"
	.file 12 "/usr/include/x86_64-linux-gnu/bits/types/struct_FILE.h"
	.file 13 "/usr/include/x86_64-linux-gnu/bits/types/FILE.h"
	.file 14 "/usr/include/x86_64-linux-gnu/bits/stdint-uintn.h"
	.file 15 "/usr/include/x86_64-linux-gnu/bits/sockaddr.h"
	.file 16 "/usr/include/x86_64-linux-gnu/bits/socket.h"
	.file 17 "/usr/include/netinet/in.h"
	.file 18 "/usr/include/bctoolbox/port.h"
	.file 19 "/usr/include/bctoolbox/list.h"
	.file 20 "/usr/include/ortp/port.h"
	.file 21 "/usr/include/ortp/str_utils.h"
	.file 22 "/usr/include/mediastreamer2/msqueue.h"
	.file 23 "/usr/include/mediastreamer2/msfilter.h"
	.file 24 "/usr/include/mediastreamer2/allfilters.h"
	.file 25 "/usr/include/mediastreamer2/box-plot.h"
	.file 26 "/usr/include/mediastreamer2/msfactory.h"
	.file 27 "/usr/include/mediastreamer2/msticker.h"
	.file 28 "/usr/include/mediastreamer2/devices.h"
	.file 29 "/usr/include/mediastreamer2/mssndcard.h"
	.file 30 "/usr/include/mediastreamer2/dtmfgen.h"
	.file 31 "/usr/include/string.h"
	.file 32 "/usr/include/stdio.h"
	.file 33 "/usr/include/mediastreamer2/mscommon.h"
	.file 34 "/usr/include/x86_64-linux-gnu/sys/stat.h"
	.file 35 "/usr/include/stdlib.h"
	.file 36 "lua_filter.h"
	.section	.note.GNU-stack,"",@progbits
	.section	.note.gnu.property,"a"
	.align 8
	.long	1f - 0f
	.long	4f - 1f
	.long	5
0:
	.string	"GNU"
1:
	.align 8
	.long	0xc0000002
	.long	3f - 2f
2:
	.long	0x3
3:
	.align 8
4:
